target datalayout = "e-m:e-p270:32:32-p271:32:32-p272:64:64-i64:64-i128:128-f80:128-n8:16:32:64-S128"
target triple = "x86_64-pc-linux-gnu"

%struct.RBTree = type { ptr, i64, ptr, ptr, ptr, ptr, ptr }
%struct.RBTNode = type { i8, ptr, ptr, ptr }

@sentinel = internal global { i8, [7 x i8], ptr, ptr, ptr } { i8 0, [7 x i8] zeroinitializer, ptr @sentinel, ptr @sentinel, ptr null }, align 8

; Function Attrs: nounwind uwtable
define dso_local ptr @rbt_find(ptr noundef %0, ptr noundef %1) #0 {
  %3 = alloca ptr, align 8
  %4 = alloca ptr, align 8
  %5 = alloca ptr, align 8
  %6 = alloca ptr, align 8
  %7 = alloca i32, align 4
  %8 = alloca i32, align 4
  store ptr %0, ptr %4, align 8
  store ptr %1, ptr %5, align 8
  call void @llvm.lifetime.start.p0(i64 8, ptr %6) #6
  %9 = load ptr, ptr %4, align 8
  %10 = getelementptr inbounds nuw %struct.RBTree, ptr %9, i32 0, i32 0
  %11 = load ptr, ptr %10, align 8
  store ptr %11, ptr %6, align 8
  br label %12

12:                                               ; preds = %44, %2
  %13 = load ptr, ptr %6, align 8
  %14 = icmp ne ptr %13, @sentinel
  br i1 %14, label %15, label %45

15:                                               ; preds = %12
  call void @llvm.lifetime.start.p0(i64 4, ptr %7) #6
  %16 = load ptr, ptr %4, align 8
  %17 = getelementptr inbounds nuw %struct.RBTree, ptr %16, i32 0, i32 2
  %18 = load ptr, ptr %17, align 8
  %19 = load ptr, ptr %5, align 8
  %20 = load ptr, ptr %6, align 8
  %21 = load ptr, ptr %4, align 8
  %22 = getelementptr inbounds nuw %struct.RBTree, ptr %21, i32 0, i32 6
  %23 = load ptr, ptr %22, align 8
  %24 = call i32 %18(ptr noundef %19, ptr noundef %20, ptr noundef %23)
  store i32 %24, ptr %7, align 4
  %25 = load i32, ptr %7, align 4
  %26 = icmp eq i32 %25, 0
  br i1 %26, label %27, label %29

27:                                               ; preds = %15
  %28 = load ptr, ptr %6, align 8
  store ptr %28, ptr %3, align 8
  store i32 1, ptr %8, align 4
  br label %42

29:                                               ; preds = %15
  %30 = load i32, ptr %7, align 4
  %31 = icmp slt i32 %30, 0
  br i1 %31, label %32, label %36

32:                                               ; preds = %29
  %33 = load ptr, ptr %6, align 8
  %34 = getelementptr inbounds nuw %struct.RBTNode, ptr %33, i32 0, i32 1
  %35 = load ptr, ptr %34, align 8
  store ptr %35, ptr %6, align 8
  br label %40

36:                                               ; preds = %29
  %37 = load ptr, ptr %6, align 8
  %38 = getelementptr inbounds nuw %struct.RBTNode, ptr %37, i32 0, i32 2
  %39 = load ptr, ptr %38, align 8
  store ptr %39, ptr %6, align 8
  br label %40

40:                                               ; preds = %36, %32
  br label %41

41:                                               ; preds = %40
  store i32 0, ptr %8, align 4
  br label %42

42:                                               ; preds = %41, %27
  call void @llvm.lifetime.end.p0(i64 4, ptr %7) #6
  %43 = load i32, ptr %8, align 4
  switch i32 %43, label %46 [
    i32 0, label %44
  ]

44:                                               ; preds = %42
  br label %12, !llvm.loop !4

45:                                               ; preds = %12
  store ptr null, ptr %3, align 8
  store i32 1, ptr %8, align 4
  br label %46

46:                                               ; preds = %45, %42
  call void @llvm.lifetime.end.p0(i64 8, ptr %6) #6
  %47 = load ptr, ptr %3, align 8
  ret ptr %47
}