; Function Attrs: nounwind uwtable
define dso_local noundef ptr @rbt_find(ptr noundef readonly captures(none) %0, ptr noundef %1) local_unnamed_addr #0 {
  %3 = getelementptr inbounds nuw i8, ptr %0, i64 16
  %.01320 = load ptr, ptr %0, align 8
  %.not21 = icmp eq ptr %.01320, @sentinel
  br i1 %.not21, label %.thread, label %.lr.ph

.lr.ph:                                           ; preds = %2
  %4 = getelementptr inbounds nuw i8, ptr %0, i64 48
  br label %5

5:                                                ; preds = %.lr.ph, %9
  %.01322 = phi ptr [ %.01320, %.lr.ph ], [ %.013, %9 ]
  %6 = load ptr, ptr %3, align 8
  %7 = load ptr, ptr %4, align 8
  %8 = tail call i32 %6(ptr noundef %1, ptr noundef %.01322, ptr noundef %7) #7
  %.not17 = icmp eq i32 %8, 0
  br i1 %.not17, label %.thread, label %9

9:                                                ; preds = %5
  %10 = icmp slt i32 %8, 0
  %.215.in.v = select i1 %10, i64 8, i64 16
  %.215.in = getelementptr inbounds nuw i8, ptr %.01322, i64 %.215.in.v
  %.013 = load ptr, ptr %.215.in, align 8
  %.not = icmp eq ptr %.013, @sentinel
  br i1 %.not, label %.thread, label %5, !llvm.loop !4

.thread:                                          ; preds = %9, %5, %2
  %.2 = phi ptr [ null, %2 ], [ %.01322, %5 ], [ null, %9 ]
  ret ptr %.2
}